target datalayout = "e-m:e-p270:32:32-p271:32:32-p272:64:64-i64:64-i128:128-f80:128-n8:16:32:64-S128"
target triple = "x86_64-pc-linux-gnu"

; Function Attrs: nounwind uwtable
define internal void @SDL_Convert71ToQuad(ptr noundef %0, ptr noundef %1, i32 noundef %2) #0 {
  %4 = alloca ptr, align 8
  %5 = alloca ptr, align 8
  %6 = alloca i32, align 4
  %7 = alloca i32, align 4
  %8 = alloca float, align 4
  %9 = alloca float, align 4
  %10 = alloca float, align 4
  %11 = alloca float, align 4
  store ptr %0, ptr %4, align 8
  store ptr %1, ptr %5, align 8
  store i32 %2, ptr %6, align 4
  call void @llvm.lifetime.start.p0(i64 4, ptr %7) #7
  %12 = load i32, ptr %6, align 4
  store i32 %12, ptr %7, align 4
  br label %13

13:                                               ; preds = %73, %3
  %14 = load i32, ptr %7, align 4
  %15 = icmp ne i32 %14, 0
  br i1 %15, label %16, label %80

16:                                               ; preds = %13
  call void @llvm.lifetime.start.p0(i64 4, ptr %8) #7
  %17 = load ptr, ptr %5, align 8
  %18 = getelementptr inbounds float, ptr %17, i64 2
  %19 = load float, ptr %18, align 4
  store float %19, ptr %8, align 4
  call void @llvm.lifetime.start.p0(i64 4, ptr %9) #7
  %20 = load ptr, ptr %5, align 8
  %21 = getelementptr inbounds float, ptr %20, i64 3
  %22 = load float, ptr %21, align 4
  store float %22, ptr %9, align 4
  call void @llvm.lifetime.start.p0(i64 4, ptr %10) #7
  %23 = load ptr, ptr %5, align 8
  %24 = getelementptr inbounds float, ptr %23, i64 6
  %25 = load float, ptr %24, align 4
  store float %25, ptr %10, align 4
  call void @llvm.lifetime.start.p0(i64 4, ptr %11) #7
  %26 = load ptr, ptr %5, align 8
  %27 = getelementptr inbounds float, ptr %26, i64 7
  %28 = load float, ptr %27, align 4
  store float %28, ptr %11, align 4
  %29 = load ptr, ptr %5, align 8
  %30 = getelementptr inbounds float, ptr %29, i64 0
  %31 = load float, ptr %30, align 4
  %32 = load float, ptr %8, align 4
  %33 = fmul float %32, 0x3FD5124A60000000
  %34 = call float @llvm.fmuladd.f32(float %31, float 0x3FDDD89800000000, float %33)
  %35 = load float, ptr %9, align 4
  %36 = call float @llvm.fmuladd.f32(float %35, float 0x3FA1A7B960000000, float %34)
  %37 = load float, ptr %10, align 4
  %38 = call float @llvm.fmuladd.f32(float %37, float 0x3FC5C04CE0000000, float %36)
  %39 = load ptr, ptr %4, align 8
  %40 = getelementptr inbounds float, ptr %39, i64 0
  store float %38, ptr %40, align 4
  %41 = load ptr, ptr %5, align 8
  %42 = getelementptr inbounds float, ptr %41, i64 1
  %43 = load float, ptr %42, align 4
  %44 = load float, ptr %8, align 4
  %45 = fmul float %44, 0x3FD5124A60000000
  %46 = call float @llvm.fmuladd.f32(float %43, float 0x3FDDD89800000000, float %45)
  %47 = load float, ptr %9, align 4
  %48 = call float @llvm.fmuladd.f32(float %47, float 0x3FA1A7B960000000, float %46)
  %49 = load float, ptr %11, align 4
  %50 = call float @llvm.fmuladd.f32(float %49, float 0x3FC5C04CE0000000, float %48)
  %51 = load ptr, ptr %4, align 8
  %52 = getelementptr inbounds float, ptr %51, i64 1
  store float %50, ptr %52, align 4
  %53 = load float, ptr %9, align 4
  %54 = load ptr, ptr %5, align 8
  %55 = getelementptr inbounds float, ptr %54, i64 4
  %56 = load float, ptr %55, align 4
  %57 = fmul float %56, 0x3FDDD89800000000
  %58 = call float @llvm.fmuladd.f32(float %53, float 0x3FA1A7B960000000, float %57)
  %59 = load float, ptr %10, align 4
  %60 = call float @llvm.fmuladd.f32(float %59, float 0x3FDBBEBF20000000, float %58)
  %61 = load ptr, ptr %4, align 8
  %62 = getelementptr inbounds float, ptr %61, i64 2
  store float %60, ptr %62, align 4
  %63 = load float, ptr %9, align 4
  %64 = load ptr, ptr %5, align 8
  %65 = getelementptr inbounds float, ptr %64, i64 5
  %66 = load float, ptr %65, align 4
  %67 = fmul float %66, 0x3FDDD89800000000
  %68 = call float @llvm.fmuladd.f32(float %63, float 0x3FA1A7B960000000, float %67)
  %69 = load float, ptr %11, align 4
  %70 = call float @llvm.fmuladd.f32(float %69, float 0x3FDBBEBF20000000, float %68)
  %71 = load ptr, ptr %4, align 8
  %72 = getelementptr inbounds float, ptr %71, i64 3
  store float %70, ptr %72, align 4
  call void @llvm.lifetime.end.p0(i64 4, ptr %11) #7
  call void @llvm.lifetime.end.p0(i64 4, ptr %10) #7
  call void @llvm.lifetime.end.p0(i64 4, ptr %9) #7
  call void @llvm.lifetime.end.p0(i64 4, ptr %8) #7
  br label %73

73:                                               ; preds = %16
  %74 = load i32, ptr %7, align 4
  %75 = add nsw i32 %74, -1
  store i32 %75, ptr %7, align 4
  %76 = load ptr, ptr %5, align 8
  %77 = getelementptr inbounds float, ptr %76, i64 8
  store ptr %77, ptr %5, align 8
  %78 = load ptr, ptr %4, align 8
  %79 = getelementptr inbounds float, ptr %78, i64 4
  store ptr %79, ptr %4, align 8
  br label %13, !llvm.loop !96

80:                                               ; preds = %13
  call void @llvm.lifetime.end.p0(i64 4, ptr %7) #7
  ret void
}