; Function Attrs: nofree norecurse nosync nounwind memory(argmem: readwrite) uwtable
define internal void @SDL_Convert71ToQuad(ptr noundef writeonly captures(none) %0, ptr noundef readonly captures(none) %1, i32 noundef %2) #5 {
  %.not28 = icmp eq i32 %2, 0
  br i1 %.not28, label %._crit_edge, label %.lr.ph

.lr.ph:                                           ; preds = %3, %.lr.ph
  %.031 = phi ptr [ %37, %.lr.ph ], [ %0, %3 ]
  %.02630 = phi ptr [ %36, %.lr.ph ], [ %1, %3 ]
  %.02729 = phi i32 [ %35, %.lr.ph ], [ %2, %3 ]
  %4 = getelementptr inbounds nuw i8, ptr %.02630, i64 8
  %5 = load float, ptr %4, align 4
  %6 = getelementptr inbounds nuw i8, ptr %.02630, i64 12
  %7 = load float, ptr %6, align 4
  %8 = getelementptr inbounds nuw i8, ptr %.02630, i64 24
  %9 = load float, ptr %8, align 4
  %10 = getelementptr inbounds nuw i8, ptr %.02630, i64 28
  %11 = load float, ptr %10, align 4
  %12 = load float, ptr %.02630, align 4
  %13 = fmul float %5, 0x3FD5124A60000000
  %14 = tail call float @llvm.fmuladd.f32(float %12, float 0x3FDDD89800000000, float %13)
  %15 = tail call float @llvm.fmuladd.f32(float %7, float 0x3FA1A7B960000000, float %14)
  %16 = tail call float @llvm.fmuladd.f32(float %9, float 0x3FC5C04CE0000000, float %15)
  store float %16, ptr %.031, align 4
  %17 = getelementptr inbounds nuw i8, ptr %.02630, i64 4
  %18 = load float, ptr %17, align 4
  %19 = tail call float @llvm.fmuladd.f32(float %18, float 0x3FDDD89800000000, float %13)
  %20 = tail call float @llvm.fmuladd.f32(float %7, float 0x3FA1A7B960000000, float %19)
  %21 = tail call float @llvm.fmuladd.f32(float %11, float 0x3FC5C04CE0000000, float %20)
  %22 = getelementptr inbounds nuw i8, ptr %.031, i64 4
  store float %21, ptr %22, align 4
  %23 = getelementptr inbounds nuw i8, ptr %.02630, i64 16
  %24 = load float, ptr %23, align 4
  %25 = fmul float %24, 0x3FDDD89800000000
  %26 = tail call float @llvm.fmuladd.f32(float %7, float 0x3FA1A7B960000000, float %25)
  %27 = tail call float @llvm.fmuladd.f32(float %9, float 0x3FDBBEBF20000000, float %26)
  %28 = getelementptr inbounds nuw i8, ptr %.031, i64 8
  store float %27, ptr %28, align 4
  %29 = getelementptr inbounds nuw i8, ptr %.02630, i64 20
  %30 = load float, ptr %29, align 4
  %31 = fmul float %30, 0x3FDDD89800000000
  %32 = tail call float @llvm.fmuladd.f32(float %7, float 0x3FA1A7B960000000, float %31)
  %33 = tail call float @llvm.fmuladd.f32(float %11, float 0x3FDBBEBF20000000, float %32)
  %34 = getelementptr inbounds nuw i8, ptr %.031, i64 12
  store float %33, ptr %34, align 4
  %35 = add nsw i32 %.02729, -1
  %36 = getelementptr inbounds nuw i8, ptr %.02630, i64 32
  %37 = getelementptr inbounds nuw i8, ptr %.031, i64 16
  %.not = icmp eq i32 %35, 0
  br i1 %.not, label %._crit_edge, label %.lr.ph, !llvm.loop !102

._crit_edge:                                      ; preds = %.lr.ph, %3
  ret void
}